(lp0
Vall of the
p1
aVall of this
p2
aVall the time
p3
aVand should be
p4
aVare going to
p5
aVare trying to
p6
aVas long as
p7
aVas much as
p8
aVas well as
p9
aVat the same
p10
aVat this point
p11
aVbe able to
p12
aVbecause they are
p13
aVbut if you
p14
aVbut it is
p15
aVdon have to
p16
aVdon want to
p17
aVgoing to be
p18
aVhave to be
p19
aVhave to do
p20
aVif you are
p21
aVif you don
p22
aVif you re
p23
aVin order to
p24
aVin the face
p25
aVin the first
p26
aVin the same
p27
aVin the world
p28
aVis going to
p29
aVis one of
p30
aVis the only
p31
aVit is not
p32
aVit should be
p33
aVit will be
p34
aVlook at the
p35
aVmen and women
p36
aVmore and more
p37
aVmost of the
p38
aVneed to be
p39
aVneeds to be
p40
aVnot all men
p41
aVnot going to
p42
aVnothing to do
p43
aVof the most
p44
aVon the right
p45
aVone of the
p46
aVone of them
p47
aVout of the
p48
aVpart of the
p49
aVpiece of shit
p50
aVright to vote
p51
aVshould be able
p52
aVsome of the
p53
aVsupposed to be
p54
aVthat they are
p55
aVthat they can
p56
aVthat this is
p57
aVthat you re
p58
aVthe democratic party
p59
aVthe fact that
p60
aVthe first place
p61
aVthe left is
p62
aVthe mueller report
p63
aVthe rest of
p64
aVthe right to
p65
aVthe same as
p66
aVthe same thing
p67
aVthe same time
p68
aVthe time you
p69
aVthe united states
p70
aVthe white house
p71
aVthe will of
p72
aVthere is no
p73
aVthey have to
p74
aVthey need to
p75
aVthey re not
p76
aVthey want to
p77
aVthink this is
p78
aVthis is an
p79
aVthis is the
p80
aVthis is what
p81
aVthis is why
p82
aVto be the
p83
aVto do with
p84
aVto have sex
p85
aVto pay for
p86
aVto vote for
p87
aVup to the
p88
aVused to be
p89
aVwant to be
p90
aVwe all know
p91
aVwe have to
p92
aVwe need to
p93
aVwhat kind of
p94
aVwhat the fuck
p95
aVyou don have
p96
aVyou have to
p97
aVyou need to
p98
aVyou re not
p99
aVyou want to
p100
a.