(lp0
Vactually
p1
aValso
p2
aValways
p3
aVamerican
p4
aVanyone
p5
aVanything
p6
aVaround
p7
aVback
p8
aVbad
p9
aVbelieve
p10
aVbetter
p11
aVcollege
p12
aVcome
p13
aVcould
p14
aVcountry
p15
aVday
p16
aVdemocrats
p17
aVeven
p18
aVevery
p19
aVeveryone
p20
aVfar
p21
aVfeel
p22
aVfirst
p23
aVfree
p24
aVfuck
p25
aVfucking
p26
aVgetting
p27
aVgive
p28
aVgoing
p29
aVgood
p30
aVgot
p31
aVgreat
p32
aVguy
p33
aVhate
p34
aVkeep
p35
aVknow
p36
aVleft
p37
aVlet
p38
aVlife
p39
aVlong
p40
aVlook
p41
aVlove
p42
aVmade
p43
aVmake
p44
aVman
p45
aVmany
p46
aVmay
p47
aVmean
p48
aVmen
p49
aVmoney
p50
aVmuch
p51
aVneed
p52
aVnever
p53
aVnew
p54
aVnews
p55
aVnothing
p56
aVone
p57
aVpart
p58
aVpay
p59
aVperson
p60
aVpoint
p61
aVpolitical
p62
aVpresident
p63
aVprobably
p64
aVracist
p65
aVreal
p66
aVreally
p67
aVrepublicans
p68
aVright
p69
aVsaid
p70
aVsay
p71
aVsaying
p72
aVsee
p73
aVsex
p74
aVshit
p75
aVsomeone
p76
aVsomething
p77
aVstate
p78
aVstill
p79
aVstop
p80
aVsure
p81
aVtake
p82
aVthing
p83
aVthings
p84
aVthink
p85
aVtime
p86
aVtrump
p87
aVtrying
p88
aVvote
p89
aVwant
p90
aVway
p91
aVwell
p92
aVwhite
p93
aVwoman
p94
aVwomen
p95
aVwork
p96
aVworld
p97
aVwrong
p98
aVyear
p99
aVyears
p100
a.