(lp0
V16 year olds
p1
aV2019 viewed outline
p2
aValmost psychotic republicans
p3
aValt right neo
p4
aVamerica never great
p5
aVamerican concentration camps
p6
aVarticle archived april
p7
aVbehind closed doors
p8
aVbelieve adolf hitler
p9
aVcampaign finance violations
p10
aVcaused climate change
p11
aVcompanies human caused
p12
aVcowards trump democrat
p13
aVdecluttered version slate
p14
aVdemocrat republicans already
p15
aVdonald trump status
p16
aVenabling trumps mental
p17
aVendless failures carry
p18
aVevery single day
p19
aVevery single one
p20
aVeye eye tooth
p21
aVfact enabling trumps
p22
aVfavor starting impeachment
p23
aVgender pay gap
p24
aVguns national guard
p25
aVhope republicans starting
p26
aVhuman caused climate
p27
aVill trump unqualified
p28
aVillness still supporting
p29
aVimpeach donald trump
p30
aVimpeach trump en
p31
aVimpeachable offenses crimes
p32
aVimpeachment make trump
p33
aVimprisoning children families
p34
aVimproper unjustifiable purposes
p35
aVkim jong un
p36
aVlong time ago
p37
aVluther king jr
p38
aVmagazine article archived
p39
aVmake feel good
p40
aVmake trump resign
p41
aVmartin luther king
p42
aVmental illness still
p43
aVmentally ill trump
p44
aVmention word president
p45
aVmexicos soldiers recently
p46
aVmr cohen said
p47
aVna na na
p48
aVnational guard soldiers
p49
aVneed wake fact
p50
aVnever great fuck
p51
aVobama use term
p52
aVobstructed justice cover
p53
aVoct debate hey
p54
aVorange man bad
p55
aVpart time jobs
p56
aVpresident united states
p57
aVprofiting office conspired
p58
aVpsychotic republicans need
p59
aVpulled guns national
p60
aVradical islamic terrorism
p61
aVradical islamic terrorists
p62
aVrape sexual assault
p63
aVreal donald trump
p64
aVrecently pulled guns
p65
aVrepublicans already impeached
p66
aVrepublicans cowards trump
p67
aVrepublicans need wake
p68
aVrepublicans starting see
p69
aVrepublicans using nazi
p70
aVrespect goes ways
p71
aVsecrets foreign powers
p72
aVsee mentally ill
p73
aVslate magazine article
p74
aVsoldiers recently pulled
p75
aVsomething along lines
p76
aVstarting impeachment make
p77
aVstarting see mentally
p78
aVstill supporting trump
p79
aVstudent loan debt
p80
aVsupporting trump favor
p81
aVsupreme court justice
p82
aVtrump democrat republicans
p83
aVtrump favor starting
p84
aVtrump unqualified almost
p85
aVtrumps mental illness
p86
aVtruth eye eye
p87
aVtwitter real donald
p88
aVtwo years ago
p89
aVunconstitutionally imprisoning children
p90
aVundermining equal protection
p91
aVundermining freedom press
p92
aVunqualified almost psychotic
p93
aVversion slate magazine
p94
aVwake fact enabling
p95
aVwant live world
p96
aVwiki efforts impeach
p97
aVworked full time
p98
aVworked part time
p99
aVworking part time
p100
a.