(lp0
Vable
p1
aVactually
p2
aVagree
p3
aValmost
p4
aValready
p5
aValso
p6
aValways
p7
aVamerica
p8
aVamerican
p9
aVanother
p10
aVanyone
p11
aVanything
p12
aVaround
p13
aVarticle
p14
aVaway
p15
aVback
p16
aVbad
p17
aVbecome
p18
aVbelieve
p19
aVbernie
p20
aVbest
p21
aVbetter
p22
aVbig
p23
aVbill
p24
aVblack
p25
aVborder
p26
aVcall
p27
aVcare
p28
aVchange
p29
aVchristian
p30
aVchristians
p31
aVcollege
p32
aVcom
p33
aVcome
p34
aVconservative
p35
aVcould
p36
aVcountry
p37
aVday
p38
aVdebt
p39
aVdemocrat
p40
aVdemocrats
p41
aVdems
p42
aVdifferent
p43
aVdone
p44
aVdont
p45
aVeither
p46
aVelection
p47
aVelse
p48
aVend
p49
aVenough
p50
aVeven
p51
aVever
p52
aVevery
p53
aVeveryone
p54
aVeverything
p55
aVfact
p56
aVfar
p57
aVfeel
p58
aVfeminism
p59
aVfeminist
p60
aVfind
p61
aVfirst
p62
aVfree
p63
aVfuck
p64
aVfucking
p65
aVfull
p66
aVgender
p67
aVgetting
p68
aVgive
p69
aVgod
p70
aVgoing
p71
aVgood
p72
aVgot
p73
aVgovernment
p74
aVgreat
p75
aVguess
p76
aVguy
p77
aVguys
p78
aVhappen
p79
aVhard
p80
aVhate
p81
aVhelp
p82
aVhistory
p83
aVhope
p84
aVhouse
p85
aVidea
p86
aVillegal
p87
aVim
p88
aVimpeachment
p89
aVimportant
p90
aVinstead
p91
aVissue
p92
aVissues
p93
aVjob
p94
aVkeep
p95
aVkids
p96
aVkind
p97
aVknow
p98
aVlast
p99
aVlaw
p100
aVleast
p101
aVleft
p102
aVless
p103
aVlet
p104
aVliberal
p105
aVlife
p106
aVliterally
p107
aVlittle
p108
aVlive
p109
aVlol
p110
aVlong
p111
aVlook
p112
aVlooks
p113
aVlove
p114
aVmade
p115
aVmake
p116
aVmakes
p117
aVmaking
p118
aVman
p119
aVmany
p120
aVmatter
p121
aVmay
p122
aVmaybe
p123
aVmean
p124
aVmeans
p125
aVmedia
p126
aVmen
p127
aVmexico
p128
aVmight
p129
aVmind
p130
aVmoney
p131
aVmr
p132
aVmuch
p133
aVmueller
p134
aVmust
p135
aVneed
p136
aVneeds
p137
aVnever
p138
aVnew
p139
aVnews
p140
aVnothing
p141
aVobama
p142
aVoffice
p143
aVoh
p144
aVold
p145
aVone
p146
aVothers
p147
aVpart
p148
aVparty
p149
aVpay
p150
aVperson
p151
aVplace
p152
aVplease
p153
aVpoint
p154
aVpolitical
p155
aVpolitics
p156
aVpost
p157
aVpower
p158
aVpresident
p159
aVpretty
p160
aVprobably
p161
aVproblem
p162
aVpublic
p163
aVput
p164
aVquestion
p165
aVracist
p166
aVrape
p167
aVread
p168
aVreal
p169
aVreally
p170
aVreason
p171
aVremember
p172
aVreport
p173
aVrepublican
p174
aVrepublicans
p175
aVright
p176
aVrights
p177
aVrun
p178
aVsaid
p179
aVsay
p180
aVsaying
p181
aVsays
p182
aVschool
p183
aVsee
p184
aVseems
p185
aVsex
p186
aVsexual
p187
aVshit
p188
aVshow
p189
aVside
p190
aVsince
p191
aVsocial
p192
aVsociety
p193
aVsomeone
p194
aVsomething
p195
aVstart
p196
aVstate
p197
aVstates
p198
aVstill
p199
aVstop
p200
aVstory
p201
aVstupid
p202
aVsupport
p203
aVsure
p204
aVtake
p205
aVtalk
p206
aVtalking
p207
aVtax
p208
aVtell
p209
aVthing
p210
aVthings
p211
aVthink
p212
aVthough
p213
aVthought
p214
aVtime
p215
aVtold
p216
aVtrump
p217
aVtry
p218
aVtrying
p219
aVtwitter
p220
aVtwo
p221
aVunderstand
p222
aVuse
p223
aVused
p224
aVvote
p225
aVvoting
p226
aVwait
p227
aVwant
p228
aVwants
p229
aVwar
p230
aVwatch
p231
aVway
p232
aVwell
p233
aVwent
p234
aVwhite
p235
aVwhole
p236
aVwithout
p237
aVwoman
p238
aVwomen
p239
aVwonder
p240
aVwork
p241
aVworld
p242
aVwrong
p243
aVwww
p244
aVx200b
p245
aVyeah
p246
aVyear
p247
aVyears
p248
aVyes
p249
aVyet
p250
a.